; Function Attrs: mustprogress uwtable
define hidden void @_ZN7nanogui7Texture6resizeERKNS_5ArrayIiLm2EEE(ptr nocapture noundef nonnull align 8 dereferenceable(40) %0, ptr nocapture noundef nonnull readonly align 4 dereferenceable(8) %1) local_unnamed_addr #0 align 2 {
  %3 = getelementptr inbounds i8, ptr %0, i64 20
  br label %4

4:                                                ; preds = %4, %2
  %.not8.i = phi i1 [ true, %2 ], [ false, %4 ]
  %.07.i = phi i64 [ 0, %2 ], [ 1, %4 ]
  %5 = getelementptr inbounds [2 x i32], ptr %3, i64 0, i64 %.07.i
  %6 = load i32, ptr %5, align 4
  %7 = getelementptr inbounds [2 x i32], ptr %1, i64 0, i64 %.07.i
  %8 = load i32, ptr %7, align 4
  %.not.i = icmp eq i32 %6, %8
  %or.cond.i = and i1 %.not8.i, %.not.i
  br i1 %or.cond.i, label %4, label %_ZNK7nanogui5ArrayIiLm2EEeqERKS1_.exit, !llvm.loop !8

_ZNK7nanogui5ArrayIiLm2EEeqERKS1_.exit:           ; preds = %4
  br i1 %.not.i, label %11, label %9

9:                                                ; preds = %_ZNK7nanogui5ArrayIiLm2EEeqERKS1_.exit
  %10 = load i64, ptr %1, align 4
  store i64 %10, ptr %3, align 4
  tail call void @_ZN7nanogui7Texture6uploadEPKh(ptr noundef nonnull align 8 dereferenceable(40) %0, ptr noundef null)
  br label %11

11:                                               ; preds = %_ZNK7nanogui5ArrayIiLm2EEeqERKS1_.exit, %9
  ret void
}